target datalayout = "e-m:e-p270:32:32-p271:32:32-p272:64:64-i64:64-i128:128-f80:128-n8:16:32:64-S128"
target triple = "x86_64-pc-linux-gnu"

; Function Attrs: mustprogress nounwind uwtable
define noundef i32 @_ZNK6icu_7722CharsetRecog_UTF_32_BE7getCharEPKhi(ptr noundef nonnull align 8 dereferenceable(8) %0, ptr noundef %1, i32 noundef %2) unnamed_addr #1 align 2 {
  %4 = alloca ptr, align 8
  %5 = alloca ptr, align 8
  %6 = alloca i32, align 4
  store ptr %0, ptr %4, align 8, !tbaa !39
  store ptr %1, ptr %5, align 8, !tbaa !19
  store i32 %2, ptr %6, align 4, !tbaa !20
  %7 = load ptr, ptr %5, align 8, !tbaa !19
  %8 = load i32, ptr %6, align 4, !tbaa !20
  %9 = add nsw i32 %8, 0
  %10 = sext i32 %9 to i64
  %11 = getelementptr inbounds i8, ptr %7, i64 %10
  %12 = load i8, ptr %11, align 1, !tbaa !22
  %13 = zext i8 %12 to i32
  %14 = shl i32 %13, 24
  %15 = load ptr, ptr %5, align 8, !tbaa !19
  %16 = load i32, ptr %6, align 4, !tbaa !20
  %17 = add nsw i32 %16, 1
  %18 = sext i32 %17 to i64
  %19 = getelementptr inbounds i8, ptr %15, i64 %18
  %20 = load i8, ptr %19, align 1, !tbaa !22
  %21 = zext i8 %20 to i32
  %22 = shl i32 %21, 16
  %23 = or i32 %14, %22
  %24 = load ptr, ptr %5, align 8, !tbaa !19
  %25 = load i32, ptr %6, align 4, !tbaa !20
  %26 = add nsw i32 %25, 2
  %27 = sext i32 %26 to i64
  %28 = getelementptr inbounds i8, ptr %24, i64 %27
  %29 = load i8, ptr %28, align 1, !tbaa !22
  %30 = zext i8 %29 to i32
  %31 = shl i32 %30, 8
  %32 = or i32 %23, %31
  %33 = load ptr, ptr %5, align 8, !tbaa !19
  %34 = load i32, ptr %6, align 4, !tbaa !20
  %35 = add nsw i32 %34, 3
  %36 = sext i32 %35 to i64
  %37 = getelementptr inbounds i8, ptr %33, i64 %36
  %38 = load i8, ptr %37, align 1, !tbaa !22
  %39 = zext i8 %38 to i32
  %40 = or i32 %32, %39
  ret i32 %40
}