; Function Attrs: mustprogress nofree norecurse nosync nounwind willreturn memory(argmem: read) uwtable
define noundef i32 @_ZNK6icu_7722CharsetRecog_UTF_32_BE7getCharEPKhi(ptr nonnull readnone align 8 captures(none) %0, ptr noundef readonly captures(none) %1, i32 noundef %2) unnamed_addr #7 align 2 {
  %4 = sext i32 %2 to i64
  %5 = getelementptr inbounds i8, ptr %1, i64 %4
  %6 = load i8, ptr %5, align 1, !tbaa !12
  %7 = zext i8 %6 to i32
  %8 = shl nuw i32 %7, 24
  %9 = getelementptr i8, ptr %5, i64 1
  %10 = load i8, ptr %9, align 1, !tbaa !12
  %11 = zext i8 %10 to i32
  %12 = shl nuw nsw i32 %11, 16
  %13 = or disjoint i32 %12, %8
  %14 = getelementptr i8, ptr %5, i64 2
  %15 = load i8, ptr %14, align 1, !tbaa !12
  %16 = zext i8 %15 to i32
  %17 = shl nuw nsw i32 %16, 8
  %18 = or disjoint i32 %13, %17
  %19 = getelementptr i8, ptr %5, i64 3
  %20 = load i8, ptr %19, align 1, !tbaa !12
  %21 = zext i8 %20 to i32
  %22 = or disjoint i32 %18, %21
  ret i32 %22
}